#include <math.h>
#include <stdio.h>
#include <stdlib.h>
#include <string.h>

void main()
{
	int i,m,n,a[20]={1,1,2,3,5,8,13,21,34,55,89,144,233,377,610,987,1597,2584,4181,6765};
	scanf("%d",&n);
	for(i=0;i<n;i++)
	{
		scanf("%d",&m);
		printf("%d\n",a[m-1]);
	}
}